; ModuleID = 'source-C-CXX/44/727.c'
source_filename = "source-C-CXX/44/727.c"
target datalayout = "e-m:e-p270:32:32-p271:32:32-p272:64:64-i64:64-f80:128-n8:16:32:64-S128"
target triple = "x86_64-pc-linux-gnu"

@.str = private unnamed_addr constant [3 x i8] c"%s\00", align 1
@.str.1 = private unnamed_addr constant [3 x i8] c"%d\00", align 1

; Function Attrs: nofree nounwind sspstrong uwtable
define dso_local void @main() local_unnamed_addr #0 {
  %1 = alloca [50 x i8], align 16
  %2 = alloca [50 x i8], align 16
  %3 = getelementptr inbounds [50 x i8], [50 x i8]* %1, i64 0, i64 0
  call void @llvm.lifetime.start.p0i8(i64 50, i8* nonnull %3) #4
  %4 = getelementptr inbounds [50 x i8], [50 x i8]* %2, i64 0, i64 0
  call void @llvm.lifetime.start.p0i8(i64 50, i8* nonnull %4) #4
  %5 = call i32 (i8*, ...) @__isoc99_scanf(i8* getelementptr inbounds ([3 x i8], [3 x i8]* @.str, i64 0, i64 0), i8* nonnull %3)
  %6 = call i32 (i8*, ...) @__isoc99_scanf(i8* getelementptr inbounds ([3 x i8], [3 x i8]* @.str, i64 0, i64 0), i8* nonnull %4)
  %7 = call i64 @strlen(i8* noundef nonnull %3) #5
  %8 = trunc i64 %7 to i32
  %9 = call i64 @strlen(i8* noundef nonnull %4) #5
  %10 = trunc i64 %9 to i32
  %11 = load i8, i8* %3, align 16
  %12 = icmp sgt i32 %10, 0
  br i1 %12, label %13, label %43

13:                                               ; preds = %0
  %14 = shl i64 %7, 32
  %15 = ashr exact i64 %14, 32
  %16 = and i64 %9, 4294967295
  br label %17

17:                                               ; preds = %13, %38
  %18 = phi i64 [ 0, %13 ], [ %39, %38 ]
  %19 = getelementptr inbounds [50 x i8], [50 x i8]* %2, i64 0, i64 %18
  %20 = load i8, i8* %19, align 1, !tbaa !5
  %21 = icmp eq i8 %11, %20
  br i1 %21, label %22, label %38

22:                                               ; preds = %17, %22
  %23 = phi i64 [ %32, %22 ], [ 0, %17 ]
  %24 = add nuw nsw i64 %23, %18
  %25 = getelementptr inbounds [50 x i8], [50 x i8]* %2, i64 0, i64 %24
  %26 = load i8, i8* %25, align 1, !tbaa !5
  %27 = getelementptr inbounds [50 x i8], [50 x i8]* %1, i64 0, i64 %23
  %28 = load i8, i8* %27, align 1, !tbaa !5
  %29 = icmp eq i8 %26, %28
  %30 = icmp slt i64 %23, %15
  %31 = select i1 %29, i1 %30, i1 false
  %32 = add nuw nsw i64 %23, 1
  br i1 %31, label %22, label %33, !llvm.loop !8

33:                                               ; preds = %22
  %34 = trunc i64 %23 to i32
  %35 = icmp ne i32 %34, %8
  %36 = icmp eq i64 %18, 0
  %37 = select i1 %35, i1 true, i1 %36
  br i1 %37, label %38, label %41

38:                                               ; preds = %33, %17
  %39 = add nuw nsw i64 %18, 1
  %40 = icmp eq i64 %39, %16
  br i1 %40, label %43, label %17, !llvm.loop !10

41:                                               ; preds = %33
  %42 = trunc i64 %18 to i32
  br label %43

43:                                               ; preds = %38, %41, %0
  %44 = phi i32 [ 0, %0 ], [ %42, %41 ], [ 0, %38 ]
  %45 = call i32 (i8*, ...) @printf(i8* nonnull dereferenceable(1) getelementptr inbounds ([3 x i8], [3 x i8]* @.str.1, i64 0, i64 0), i32 %44)
  call void @llvm.lifetime.end.p0i8(i64 50, i8* nonnull %4) #4
  call void @llvm.lifetime.end.p0i8(i64 50, i8* nonnull %3) #4
  ret void
}

; Function Attrs: argmemonly mustprogress nofree nosync nounwind willreturn
declare void @llvm.lifetime.start.p0i8(i64 immarg, i8* nocapture) #1

; Function Attrs: nofree nounwind
declare noundef i32 @__isoc99_scanf(i8* nocapture noundef readonly, ...) local_unnamed_addr #2

; Function Attrs: argmemonly mustprogress nofree nounwind readonly willreturn
declare i64 @strlen(i8* nocapture) local_unnamed_addr #3

; Function Attrs: nofree nounwind
declare noundef i32 @printf(i8* nocapture noundef readonly, ...) local_unnamed_addr #2

; Function Attrs: argmemonly mustprogress nofree nosync nounwind willreturn
declare void @llvm.lifetime.end.p0i8(i64 immarg, i8* nocapture) #1


!llvm.module.flags = !{!0, !1, !2, !3}
!llvm.ident = !{!4}

!0 = !{i32 1, !"wchar_size", i32 4}
!1 = !{i32 7, !"PIC Level", i32 2}
!2 = !{i32 7, !"PIE Level", i32 2}
!3 = !{i32 7, !"uwtable", i32 1}
!4 = !{!"clang version 13.0.0"}
!5 = !{!6, !6, i64 0}
!6 = !{!"omnipotent char", !7, i64 0}
!7 = !{!"Simple C/C++ TBAA"}
!8 = distinct !{!8, !9}
!9 = !{!"llvm.loop.mustprogress"}
!10 = distinct !{!10, !9}
